; Function Attrs: nounwind uwtable
define internal void @luaMaskCountHook(ptr noundef %0, ptr readnone captures(none) %1) #0 {
  %3 = tail call ptr @luaGetFromRegistry(ptr noundef %0, ptr noundef nonnull @.str.40)
  %.not = icmp eq ptr %3, null
  br i1 %.not, label %4, label %5, !prof !6

4:                                                ; preds = %2
  tail call void @_serverAssert(ptr noundef nonnull @.str.98, ptr noundef nonnull @.str.1, i32 noundef 1548) #11
  tail call void @abort() #12
  unreachable

5:                                                ; preds = %2
  %6 = tail call i32 @scriptInterrupt(ptr noundef nonnull %3) #11
  %7 = icmp eq i32 %6, 1
  br i1 %7, label %8, label %16

8:                                                ; preds = %5
  %9 = load i32, ptr getelementptr inbounds nuw (i8, ptr @server, i64 6288), align 8, !tbaa !26
  %10 = icmp sgt i32 %9, 2
  br i1 %10, label %12, label %11

11:                                               ; preds = %8
  tail call void (i32, ptr, ...) @_serverLog(i32 noundef 2, ptr noundef nonnull @.str.122) #11
  br label %12

12:                                               ; preds = %8, %11
  %13 = tail call i32 @lua_sethook(ptr noundef %0, ptr noundef nonnull @luaMaskCountHook, i32 noundef 4, i32 noundef 0) #11
  %14 = tail call ptr @sdsnew(ptr noundef nonnull @.str.123) #11
  tail call void @luaPushErrorBuff(ptr noundef %0, ptr noundef %14)
  %15 = tail call i32 @lua_error(ptr noundef %0) #11
  br label %16

16:                                               ; preds = %12, %5
  ret void
}